
C:\Kevin\source\test\Hello\obj_Sxx_so\Hello.elf:     file format elf32-littlearm

Disassembly of section .text:

000004b8 <s_ctors>:
 4b8:	e12fff1e 	bx	lr

000004bc <s_dtors>:
 4bc:	e12fff1e 	bx	lr

000004c0 <event_main>:
 4c0:	e52de004 	str	lr, [sp, #-4]!
 4c4:	eb0000d0 	bl	80c <.text+0x354>
 4c8:	e3a00000 	mov	r0, #0	; 0x0
 4cc:	e49df004 	ldr	pc, [sp], #4

000004d0 <main>:
 4d0:	e92d4ff0 	stmdb	sp!, {r4, r5, r6, r7, r8, r9, sl, fp, lr}
 4d4:	e24dd050 	sub	sp, sp, #80	; 0x50
 4d8:	eb0000cb 	bl	80c <.text+0x354>
 4dc:	e3a00000 	mov	r0, #0	; 0x0
 4e0:	e1a01000 	mov	r1, r0
 4e4:	eb0000c5 	bl	800 <.text+0x348>
 4e8:	e3a00001 	mov	r0, #1	; 0x1
 4ec:	eb0000b7 	bl	7d0 <.text+0x318>
 4f0:	e59f00f8 	ldr	r0, [pc, #248]	; 5f0 <.text+0x138>
 4f4:	eb0000b2 	bl	7c4 <.text+0x30c>
 4f8:	e3a00000 	mov	r0, #0	; 0x0
 4fc:	eb0000b3 	bl	7d0 <.text+0x318>
 500:	e3a00000 	mov	r0, #0	; 0x0
 504:	e3a01003 	mov	r1, #3	; 0x3
 508:	eb0000bc 	bl	800 <.text+0x348>
 50c:	e59f00e0 	ldr	r0, [pc, #224]	; 5f4 <.text+0x13c>
 510:	eb0000ab 	bl	7c4 <.text+0x30c>
 514:	e28d9049 	add	r9, sp, #73	; 0x49
 518:	e28db021 	add	fp, sp, #33	; 0x21
 51c:	e1a00009 	mov	r0, r9
 520:	eb0000b0 	bl	7e8 <.text+0x330>
 524:	e28d1035 	add	r1, sp, #53	; 0x35
 528:	e1a00009 	mov	r0, r9
 52c:	e3a02006 	mov	r2, #6	; 0x6
 530:	eb0000af 	bl	7f4 <.text+0x33c>
 534:	e3500000 	cmp	r0, #0	; 0x0
 538:	e59f10b8 	ldr	r1, [pc, #184]	; 5f8 <.text+0x140>
 53c:	e1a0000b 	mov	r0, fp
 540:	0afffff5 	beq	51c <main+0x4c>
 544:	e5dd204a 	ldrb	r2, [sp, #74]
 548:	e5ddc04b 	ldrb	ip, [sp, #75]
 54c:	e5dde04c 	ldrb	lr, [sp, #76]
 550:	e5dd404d 	ldrb	r4, [sp, #77]
 554:	e5dd504e 	ldrb	r5, [sp, #78]
 558:	e202300f 	and	r3, r2, #15	; 0xf
 55c:	e20c600f 	and	r6, ip, #15	; 0xf
 560:	e20e700f 	and	r7, lr, #15	; 0xf
 564:	e204800f 	and	r8, r4, #15	; 0xf
 568:	e205a00f 	and	sl, r5, #15	; 0xf
 56c:	e1a02222 	mov	r2, r2, lsr #4
 570:	e1a0c22c 	mov	ip, ip, lsr #4
 574:	e1a0e22e 	mov	lr, lr, lsr #4
 578:	e1a04224 	mov	r4, r4, lsr #4
 57c:	e1a05225 	mov	r5, r5, lsr #4
 580:	e28cc030 	add	ip, ip, #48	; 0x30
 584:	e28ee030 	add	lr, lr, #48	; 0x30
 588:	e2822030 	add	r2, r2, #48	; 0x30
 58c:	e2833030 	add	r3, r3, #48	; 0x30
 590:	e2866030 	add	r6, r6, #48	; 0x30
 594:	e2877030 	add	r7, r7, #48	; 0x30
 598:	e2844030 	add	r4, r4, #48	; 0x30
 59c:	e2888030 	add	r8, r8, #48	; 0x30
 5a0:	e2855030 	add	r5, r5, #48	; 0x30
 5a4:	e28aa030 	add	sl, sl, #48	; 0x30
 5a8:	e58dc000 	str	ip, [sp]
 5ac:	e98d4040 	stmib	sp, {r6, lr}
 5b0:	e58d700c 	str	r7, [sp, #12]
 5b4:	e58d4010 	str	r4, [sp, #16]
 5b8:	e58d8014 	str	r8, [sp, #20]
 5bc:	e58d5018 	str	r5, [sp, #24]
 5c0:	e58da01c 	str	sl, [sp, #28]
 5c4:	eb000093 	bl	818 <.text+0x360>
 5c8:	e3a01006 	mov	r1, #6	; 0x6
 5cc:	e3a00000 	mov	r0, #0	; 0x0
 5d0:	eb00008a 	bl	800 <.text+0x348>
 5d4:	e1a0000b 	mov	r0, fp
 5d8:	eb000079 	bl	7c4 <.text+0x30c>
 5dc:	e28d0035 	add	r0, sp, #53	; 0x35
 5e0:	e1a01009 	mov	r1, r9
 5e4:	e3a02006 	mov	r2, #6	; 0x6
 5e8:	eb00007b 	bl	7dc <.text+0x324>
 5ec:	eaffffca 	b	51c <main+0x4c>
 5f0:	0000066c 	andeq	r0, r0, ip, ror #12
 5f4:	00000680 	andeq	r0, r0, r0, lsl #13
 5f8:	00000690 	muleq	r0, r0, r6

000005fc <AppLoadSo>:
 5fc:	e3a015b7 	mov	r1, #767557632	; 0x2dc00000
 600:	e2811603 	add	r1, r1, #3145728	; 0x300000
 604:	e3a03021 	mov	r3, #33	; 0x21
 608:	e3a02010 	mov	r2, #16	; 0x10
 60c:	e5813000 	str	r3, [r1]
 610:	e5812004 	str	r2, [r1, #4]
 614:	ef000100 	swi	0x00000100
 618:	e5910008 	ldr	r0, [r1, #8]
 61c:	e12fff1e 	bx	lr

00000620 <event_main_entry>:
 620:	e92d4010 	stmdb	sp!, {r4, lr}
 624:	e1a04000 	mov	r4, r0
 628:	ebfffff3 	bl	5fc <AppLoadSo>
 62c:	e1a00004 	mov	r0, r4
 630:	e8bd4010 	ldmia	sp!, {r4, lr}
 634:	eaffffa1 	b	4c0 <event_main>

00000638 <main_entry>:
 638:	e52de004 	str	lr, [sp, #-4]!
 63c:	ebffffee 	bl	5fc <AppLoadSo>
 640:	ebffff9c 	bl	4b8 <s_ctors>
 644:	ebffffa1 	bl	4d0 <main>
 648:	ebffff9b 	bl	4bc <s_dtors>
 64c:	eb000074 	bl	824 <.text+0x36c>
 650:	e3500001 	cmp	r0, #1	; 0x1
 654:	1afffff9 	bne	640 <main_entry+0x8>
 658:	e2400001 	sub	r0, r0, #1	; 0x1
 65c:	e49df004 	ldr	pc, [sp], #4

00000660 <__entry>:
 660:	eafffff4 	b	638 <main_entry>
 664:	eaffffed 	b	620 <event_main_entry>
 668:	ea00000f 	b	6ac <AppInfo>
 66c:	65482020 	strvsb	r2, [r8, #-32]
 670:	206f6c6c 	rsbcs	r6, pc, ip, ror #24
 674:	6c726f57 	ldcvsl	15, cr6, [r2], #-348
 678:	20202164 	eorcs	r2, r0, r4, ror #2
 67c:	00000000 	andeq	r0, r0, r0
 680:	69775320 	ldmvsdb	r7!, {r5, r8, r9, ip, lr}^
 684:	20646570 	rsbcs	r6, r4, r0, ror r5
 688:	64726163 	ldrvsbt	r6, [r2], #-355
 68c:	003c3c3c 	eoreqs	r3, ip, ip, lsr ip
 690:	63256325 	teqvs	r5, #-1811939328	; 0x94000000
 694:	2563252f 	strcsb	r2, [r3, #-1327]!
 698:	20202063 	eorcs	r2, r0, r3, rrx
 69c:	63256325 	teqvs	r5, #-1811939328	; 0x94000000
 6a0:	2563253a 	strcsb	r2, [r3, #-1338]!
 6a4:	63253a63 	teqvs	r5, #405504	; 0x63000
 6a8:	00006325 	andeq	r6, r0, r5, lsr #6

000006ac <AppInfo>:
 6ac:	2d534f50 	ldccsl	15, cr4, [r3, #-320]
 6b0:	706d6953 	rsbvc	r6, sp, r3, asr r9
 6b4:	6520656c 	strvs	r6, [r0, #-1388]!
 6b8:	706d6178 	rsbvc	r6, sp, r8, ror r1
 6bc:	0000656c 	andeq	r6, r0, ip, ror #10
	...
 6cc:	2d505041 	ldccsl	0, cr5, [r0, #-260]
 6d0:	54534554 	ldrplb	r4, [r3], #-1364
	...
 6dc:	00302e31 	eoreqs	r2, r0, r1, lsr lr
	...
 6ec:	65746370 	ldrvsb	r6, [r4, #-880]!
 6f0:	00006d61 	andeq	r6, r0, r1, ror #26
	...
 70c:	6f6d6564 	swivs	0x006d6564
 710:	6f727020 	swivs	0x00727020
 714:	6d617267 	sfmvs	f7, 2, [r1, #-412]!
	...
Disassembly of section .plt:

000007b0 <.plt>:
 7b0:	e52de004 	str	lr, [sp, #-4]!
 7b4:	e59fe004 	ldr	lr, [pc, #4]	; 7c0 <.plt+0x10>
 7b8:	e08fe00e 	add	lr, pc, lr
 7bc:	e5bef008 	ldr	pc, [lr, #8]!
 7c0:	00000070 	andeq	r0, r0, r0, ror r0
 7c4:	e28fc600 	add	ip, pc, #0	; 0x0
 7c8:	e28cca00 	add	ip, ip, #0	; 0x0
 7cc:	e5bcf070 	ldr	pc, [ip, #112]!
 7d0:	e28fc600 	add	ip, pc, #0	; 0x0
 7d4:	e28cca00 	add	ip, ip, #0	; 0x0
 7d8:	e5bcf068 	ldr	pc, [ip, #104]!
 7dc:	e28fc600 	add	ip, pc, #0	; 0x0
 7e0:	e28cca00 	add	ip, ip, #0	; 0x0
 7e4:	e5bcf060 	ldr	pc, [ip, #96]!
 7e8:	e28fc600 	add	ip, pc, #0	; 0x0
 7ec:	e28cca00 	add	ip, ip, #0	; 0x0
 7f0:	e5bcf058 	ldr	pc, [ip, #88]!
 7f4:	e28fc600 	add	ip, pc, #0	; 0x0
 7f8:	e28cca00 	add	ip, ip, #0	; 0x0
 7fc:	e5bcf050 	ldr	pc, [ip, #80]!
 800:	e28fc600 	add	ip, pc, #0	; 0x0
 804:	e28cca00 	add	ip, ip, #0	; 0x0
 808:	e5bcf048 	ldr	pc, [ip, #72]!
 80c:	e28fc600 	add	ip, pc, #0	; 0x0
 810:	e28cca00 	add	ip, ip, #0	; 0x0
 814:	e5bcf040 	ldr	pc, [ip, #64]!
 818:	e28fc600 	add	ip, pc, #0	; 0x0
 81c:	e28cca00 	add	ip, ip, #0	; 0x0
 820:	e5bcf038 	ldr	pc, [ip, #56]!
 824:	e28fc600 	add	ip, pc, #0	; 0x0
 828:	e28cca00 	add	ip, ip, #0	; 0x0
 82c:	e5bcf030 	ldr	pc, [ip, #48]!